(dp0
S'bigstage'
p1
(dp2
I0
S'1DN'
p3
sI1
g3
sI2
g3
sI3
g3
sI4
g3
sI5
g3
sI6
g3
sI7
g3
sI8
g3
sI9
g3
sI10
g3
sI11
g3
sI12
g3
sI13
g3
sI14
g3
sI15
g3
sI16
g3
sI17
g3
sI18
g3
sI19
g3
sI20
g3
sI21
g3
sI22
g3
sI23
g3
sI24
g3
sI25
g3
sI26
g3
sI27
g3
sI28
g3
sI29
g3
sI30
g3
sI31
g3
sI32
g3
sI33
g3
sI34
g3
sI35
g3
sI36
g3
sI37
g3
sI38
g3
sI39
g3
sI40
g3
sI41
g3
sI42
g3
sI43
g3
sI44
g3
sI45
g3
sI46
g3
sI47
g3
sI48
g3
sI49
g3
sI50
g3
sI51
g3
sI52
g3
sI53
g3
sI54
g3
sI55
g3
sI56
g3
sI57
g3
sI58
g3
sI59
g3
sI60
g3
sI61
g3
sI62
g3
sI63
g3
sI64
g3
sI65
g3
sI66
g3
sI67
g3
sI68
g3
sI69
g3
sI70
g3
sI71
g3
sI72
g3
sI73
g3
sI74
g3
sI75
g3
sI76
g3
sI77
g3
sI78
g3
sI79
g3
sI80
g3
sI81
g3
sI82
g3
sI83
g3
sI84
g3
sI85
g3
sI86
g3
sI87
g3
sI88
g3
sI89
g3
sI90
g3
sI91
g3
sI92
g3
sI93
g3
sI94
g3
sI95
g3
sI96
g3
sI97
g3
sI98
g3
sI99
g3
sI100
g3
sI101
g3
sI102
S'2preDP'
p4
sI103
g4
sI104
g4
sI105
g4
sI106
g4
sI107
g4
sI108
g4
sI109
g4
sI110
g4
sI111
g4
sI112
g4
sI113
g4
sI114
g4
sI115
g4
sI116
g4
sI117
g4
sI118
g4
sI119
g4
sI120
g4
sI121
g4
sI122
g4
sI123
g4
sI124
g4
sI125
g4
sI126
g4
sI127
g4
sI128
g4
sI129
g4
sI130
g4
sI131
g4
sI132
g4
sI133
g4
sI134
g4
sI135
g4
sI136
g4
sI137
g4
sI138
g4
sI139
g4
sI140
g4
sI141
g4
sI142
g4
sI143
g4
sI144
g4
sI145
g4
sI146
g4
sI147
g4
sI148
g4
sI149
g4
sI150
g4
sI151
g4
sI152
g4
sI153
g4
sI154
g4
sI155
g4
sI156
g4
sI157
g4
sI158
g4
sI159
g4
sI160
g4
sI161
g4
sI162
g4
sI163
g4
sI164
g4
sI165
g4
sI166
g4
sI167
g4
sI168
g4
sI169
g4
sI170
g4
sI171
g4
sI172
g4
sI173
g4
sI174
g4
sI175
g4
sI176
g4
sI177
g4
sI178
g4
sI179
g4
sI180
g4
sI181
g4
sI182
g4
sI183
g4
sI184
g4
sI185
g4
sI186
g4
sI187
g4
sI188
g4
sI189
g4
sI190
g4
sI191
g4
sI192
g4
sI193
g4
sI194
g4
sI195
g4
sI196
g4
sI197
g4
sI198
g4
sI199
g4
sI200
g4
sI201
g4
sI202
g4
sI203
g4
sI204
g4
sI205
g4
sI206
g4
sI207
g4
sI208
g4
sI209
g4
sI210
g4
sI211
g4
sI212
g4
sI213
g4
sI214
g4
sI215
g4
sI216
g4
sI217
g4
sI218
g4
sI219
g4
sI220
g4
sI221
g4
sI222
g4
sI223
g4
sI224
g4
sI225
g4
sI226
g4
sI227
g4
sI228
g4
sI229
g4
sI230
g4
sI231
g4
sI232
g4
sI233
g4
sI234
g4
sI235
g4
sI236
g4
sI237
g4
sI238
g4
sI239
g4
sI240
g4
sI241
g4
sI242
g4
sI243
g4
sI244
g4
sI245
g4
sI246
g4
sI247
g4
sI248
g4
sI249
g4
sI250
g4
sI251
g4
sI252
g4
sI253
g4
sI254
g4
sI255
g4
sI256
g4
sI257
g4
sI258
g4
sI259
g4
sI260
g4
sI261
g4
sI262
g4
sI263
g4
sI264
g4
sI265
g4
sI266
g4
sI267
g4
sI268
g4
sI269
g4
sI270
g4
sI271
g4
sI272
g4
sI273
g4
sI274
g4
sI275
g4
sI276
g4
sI277
g4
sI278
g4
sI279
g4
sI280
g4
sI281
g4
sI282
g4
sI283
g4
sI284
g4
sI285
g4
sI286
g4
sI287
g4
sI288
g4
sI289
g4
sI290
g4
sI291
g4
sI292
g4
sI293
g4
sI294
g4
sI295
g4
sI296
g4
sI297
g4
sI298
g4
sI299
g4
sI300
g4
sI301
g4
sI302
g4
sI303
g4
sI304
g4
sI305
g4
sI306
g4
sI307
g4
sI308
g4
sI309
g4
sI310
g4
sI311
g4
sI312
g4
sI313
g4
sI314
g4
sI315
g4
sI316
g4
sI317
g4
sI318
g4
sI319
g4
sI320
g4
sI321
g4
sI322
g4
sI323
g4
sI324
g4
sI325
g4
sI326
g4
sI327
g4
sI328
g4
sI329
g4
sI330
g4
sI331
g4
sI332
g4
sI333
g4
sI334
g4
sI335
g4
sI336
g4
sI337
g4
sI338
g4
sI339
g4
sI340
g4
sI341
g4
sI342
g4
sI343
g4
sI344
g4
sI345
g4
sI346
g4
sI347
g4
sI348
g4
sI349
g4
sI350
g4
sI351
g4
sI352
g4
sI353
g4
sI354
g4
sI355
g4
sI356
g4
sI357
g4
sI358
S'3DPbla'
p5
sI359
g5
sI360
g5
sI361
g5
sI362
g5
sI363
g5
sI364
g5
sI365
g5
sI366
g5
sI367
g5
sI368
g5
sI369
g5
sI370
g5
sI371
g5
sI372
g5
sI373
g5
sI374
g5
sI375
g5
sI376
g5
sI377
g5
sI378
g5
sI379
g5
sI380
g5
sI381
g5
sI382
g5
sI383
g5
sI384
g5
sI385
g5
sI386
g5
sI387
g5
sI388
g5
sI389
g5
sI390
g5
sI391
g5
sI392
g5
sI393
g5
sI394
g5
sI395
g5
sI396
g5
sI397
g5
sI398
g5
sI399
g5
sI400
g5
sI401
g5
sI402
g5
sI403
g5
sI404
g5
sI405
g5
sI406
g5
sI407
g5
sI408
g5
sI409
g5
sI410
g5
sI411
g5
sI412
g5
sI413
g5
sI414
g5
sI415
g5
sI416
g5
sI417
g5
sI418
g5
sI419
g5
sI420
g5
sI421
g5
sI422
g5
sI423
g5
sI424
g5
sI425
g5
sI426
g5
sI427
g5
sI428
g5
sI429
g5
sI430
g5
sI431
g5
sI432
g5
sI433
g5
sI434
g5
sI435
g5
sI436
g5
sI437
g5
sI438
g5
sI439
g5
sI440
g5
sI441
g5
sI442
g5
sI443
g5
sI444
g5
sI445
g5
sI446
g5
sI447
g5
sI448
g5
sI449
g5
sI450
g5
sI451
g5
sI452
g5
sI453
g5
sI454
g5
sI455
g5
sI456
g5
sI457
g5
sI458
g5
sI459
g5
sI460
g5
sI461
g5
sI462
g5
sI463
g5
sI464
g5
sI465
g5
sI466
g5
sI467
g5
sI468
g5
sI469
g5
sI470
g5
sI471
g5
sI472
g5
sI473
g5
sI474
g5
sI475
g5
sI476
g5
sI477
g5
sI478
g5
sI479
g5
sI480
g5
sI481
g5
sI482
g5
sI483
g5
sI484
g5
sI485
g5
sI486
g5
sI487
g5
sI488
g5
sI489
g5
sI490
g5
sI491
g5
sI492
g5
sI493
g5
sI494
g5
sI495
g5
sI496
g5
sI497
g5
sI498
g5
sI499
g5
sI500
g5
sI501
g5
sI502
g5
sI503
g5
sI504
g5
sI505
g5
sI506
g5
sI507
g5
sI508
g5
sI509
g5
sI510
g5
sI511
g5
sI512
g5
sI513
g5
sI514
g5
sI515
g5
sI516
g5
sI517
g5
sI518
g5
sI519
g5
sI520
g5
sI521
g5
sI522
g5
sI523
g5
sI524
g5
sI525
g5
sI526
g5
sI527
g5
sI528
g5
sI529
g5
sI530
g5
sI531
g5
sI532
g5
sI533
g5
sI534
g5
sI535
g5
sI536
g5
sI537
g5
sI538
g5
sI539
g5
sI540
g5
sI541
g5
sI542
g5
sI543
g5
sI544
g5
sI545
g5
sI546
g5
sI547
g5
sI548
g5
sI549
g5
sI550
g5
sI551
g5
sI552
g5
sI553
g5
sI554
g5
sI555
g5
sI556
g5
sI557
g5
sI558
g5
sI559
g5
sI560
g5
sI561
g5
sI562
g5
sI563
g5
sI564
g5
sI565
g5
sI566
g5
sI567
g5
sI568
g5
sI569
g5
sI570
g5
sI571
g5
sI572
g5
sI573
g5
sI574
g5
sI575
g5
sI576
g5
sI577
g5
sI578
g5
sI579
g5
sI580
g5
sI581
g5
sI582
g5
sI583
g5
sI584
g5
sI585
g5
sI586
g5
sI587
g5
sI588
g5
sI589
g5
sI590
g5
sI591
g5
sI592
g5
sI593
g5
sI594
g5
sI595
g5
sI596
g5
sI597
g5
sI598
g5
sI599
g5
sI600
g5
sI601
g5
sI602
g5
sI603
g5
sI604
g5
sI605
g5
sI606
g5
sI607
g5
sI608
g5
sI609
g5
sI610
g5
sI611
g5
sI612
g5
sI613
g5
sI614
g5
sI615
g5
sI616
g5
sI617
g5
sI618
g5
sI619
g5
sI620
g5
sI621
g5
sI622
g5
sI623
g5
sI624
g5
sI625
g5
sI626
g5
sI627
g5
sI628
g5
sI629
g5
sI630
g5
sI631
g5
sI632
g5
sI633
g5
sI634
g5
sI635
g5
sI636
g5
sI637
g5
sI638
g5
sI639
g5
sI640
g5
sI641
g5
sI642
g5
sI643
g5
sI644
g5
sI645
g5
sI646
g5
sI647
g5
sI648
g5
sI649
g5
sI650
g5
sI651
g5
sI652
g5
sI653
g5
sI654
g5
sI655
g5
sI656
g5
sI657
g5
sI658
g5
sI659
g5
sI660
g5
sI661
g5
sI662
g5
sI663
g5
sI664
g5
sI665
g5
sI666
g5
sI667
g5
sI668
g5
sI669
g5
sI670
g5
sI671
g5
sI672
g5
sI673
g5
sI674
g5
sI675
g5
sI676
g5
sI677
g5
sI678
g5
sI679
g5
sI680
g5
sI681
g5
sI682
g5
sI683
g5
sI684
g5
sI685
g5
sI686
g5
sI687
g5
sI688
g5
sI689
g5
sI690
g5
sI691
g5
sI692
g5
sI693
g5
sI694
g5
sI695
g5
sI696
g5
sI697
g5
sI698
g5
sI699
g5
sI700
g5
sI701
g5
sI702
g5
sI703
g5
sI704
g5
sI705
g5
sI706
g5
sI707
g5
sI708
g5
sI709
g5
sI710
g5
sI711
g5
sI712
g5
sI713
g5
sI714
g5
sI715
g5
sI716
g5
sI717
g5
sI718
g5
sI719
g5
sI720
g5
sI721
g5
sI722
g5
sI723
g5
sI724
g5
sI725
g5
sI726
g5
sI727
g5
sI728
g5
sI729
g5
sI730
g5
sI731
g5
sI732
g5
sI733
g5
sI734
g5
sI735
g5
sI736
g5
sI737
g5
sI738
g5
sI739
g5
sI740
g5
sI741
g5
sI742
g5
sI743
g5
sI744
g5
sI745
g5
sI746
g5
sI747
g5
sI748
g5
sI749
g5
sI750
g5
sI751
g5
sI752
g5
sI753
g5
sI754
g5
sI755
g5
sI756
g5
sI757
g5
sI758
g5
sI759
g5
sI760
g5
sI761
g5
sI762
g5
sI763
g5
sI764
g5
sI765
g5
sI766
g5
sI767
g5
sI768
g5
sI769
g5
sI770
g5
sI771
g5
sI772
g5
sI773
g5
sI774
g5
sI775
g5
sI776
g5
sI777
g5
sI778
g5
sI779
g5
sI780
g5
sI781
g5
sI782
g5
sI783
g5
sI784
g5
sI785
g5
sI786
g5
sI787
g5
sI788
g5
sI789
g5
sI790
g5
sI791
g5
sI792
g5
sI793
g5
sI794
g5
sI795
g5
sI796
g5
sI797
g5
sI798
g5
sI799
g5
sI800
g5
sI801
g5
sI802
g5
sI803
g5
sI804
g5
sI805
g5
sI806
g5
sI807
g5
sI808
g5
sI809
g5
sI810
g5
sI811
g5
sI812
g5
sI813
g5
sI814
g5
sI815
g5
sI816
g5
sI817
g5
sI818
g5
sI819
g5
sI820
g5
sI821
g5
sI822
g5
sI823
g5
sI824
g5
sI825
g5
sI826
g5
sI827
g5
sI828
g5
sI829
g5
sI830
g5
sI831
g5
sI832
g5
sI833
g5
sI834
g5
sI835
g5
sI836
g5
sI837
g5
sI838
g5
sI839
g5
sI840
g5
sI841
g5
sI842
g5
sI843
g5
sI844
g5
sI845
g5
sI846
g5
sI847
g5
sI848
g5
sI849
g5
sI850
g5
sI851
g5
sI852
g5
sI853
g5
sI854
g5
sI855
g5
sI856
g5
sI857
g5
sI858
g5
sI859
g5
sI860
g5
sI861
g5
sI862
g5
sI863
g5
sI864
g5
sI865
g5
sI866
g5
sI867
g5
sI868
g5
sI869
g5
sI870
g5
sI871
g5
sI872
g5
sI873
g5
sI874
g5
sI875
g5
sI876
g5
sI877
g5
sI878
g5
sI879
g5
sI880
g5
sI881
g5
sI882
g5
sI883
g5
sI884
g5
sI885
g5
sI886
g5
sI887
g5
sI888
g5
sI889
g5
sI890
g5
sI891
g5
sI892
g5
sI893
g5
sI894
g5
sI895
g5
sI896
g5
sI897
g5
sI898
g5
sI899
g5
sI900
g5
sI901
g5
sI902
g5
sI903
g5
sI904
g5
sI905
g5
sI906
g5
sI907
g5
sI908
g5
sI909
g5
sI910
S'4DPre'
p6
sI911
g6
sI912
g6
sI913
g6
sI914
g6
sI915
g6
sI916
g6
sI917
g6
sI918
g6
sI919
g6
sI920
g6
sI921
g6
sI922
g6
sI923
g6
sI924
g6
sI925
g6
sI926
g6
sI927
g6
sI928
g6
sI929
g6
sI930
g6
sI931
g6
sI932
g6
sI933
g6
sI934
g6
sI935
g6
sI936
g6
sI937
g6
sI938
g6
sI939
g6
sI940
g6
sI941
g6
sI942
g6
sI943
g6
sI944
g6
sI945
g6
sI946
g6
sI947
g6
sI948
g6
sI949
g6
sI950
g6
sI951
g6
sI952
g6
sI953
g6
sI954
g6
sI955
g6
sI956
g6
sI957
g6
sI958
g6
sI959
g6
sI960
g6
sI961
g6
sI962
g6
sI963
g6
sI964
g6
sI965
g6
sI966
g6
sI967
g6
sI968
g6
sI969
g6
sI970
g6
sI971
g6
sI972
g6
sI973
g6
sI974
g6
sI975
g6
sI976
g6
sI977
g6
sI978
g6
sI979
g6
sI980
g6
sI981
g6
sI982
g6
sI983
g6
sI984
g6
sI985
g6
sI986
g6
sI987
g6
sI988
g6
sI989
g6
sI990
g6
sI991
g6
sI992
g6
sI993
g6
sI994
g6
sI995
g6
sI996
g6
sI997
g6
sI998
g6
sI999
g6
sI1000
g6
sI1001
g6
sI1002
g6
sI1003
g6
sI1004
g6
sI1005
g6
sI1006
g6
sI1007
g6
sI1008
g6
sI1009
g6
sI1010
g6
sI1011
g6
sI1012
g6
sI1013
g6
sI1014
g6
sI1015
g6
sI1016
g6
sI1017
g6
sI1018
g6
sI1019
g6
sI1020
g6
sI1021
g6
sI1022
g6
sI1023
g6
sI1024
g6
sI1025
g6
sI1026
g6
sI1027
g6
sI1028
g6
sI1029
g6
sI1030
g6
sI1031
g6
sI1032
g6
sI1033
g6
sI1034
g6
sI1035
g6
sI1036
g6
sI1037
g6
sI1038
g6
sI1039
g6
sI1040
g6
sI1041
g6
sI1042
g6
sI1043
g6
sI1044
g6
sI1045
S'5DPsel'
p7
sI1046
g7
sI1047
g7
sI1048
g7
sI1049
g7
sI1050
g7
sI1051
g7
sI1052
g7
sI1053
g7
sI1054
g7
sI1055
g7
sI1056
g7
sI1057
g7
sI1058
g7
sI1059
g7
sI1060
g7
sI1061
g7
sI1062
g7
sI1063
g7
sI1064
g7
sI1065
g7
sI1066
g7
sI1067
g7
sI1068
g7
sI1069
g7
sI1070
g7
sI1071
g7
sI1072
g7
sI1073
g7
sI1074
g7
sI1075
g7
sI1076
g7
sI1077
g7
sI1078
g7
sI1079
g7
sI1080
g7
sI1081
g7
sI1082
g7
sI1083
g7
sI1084
g7
sI1085
g7
sI1086
g7
sI1087
g7
sI1088
g7
sI1089
g7
sI1090
g7
sI1091
g7
sI1092
g7
sI1093
g7
sI1094
g7
sI1095
g7
sI1096
g7
sI1097
g7
sI1098
g7
sI1099
g7
sI1100
g7
sI1101
g7
sI1102
g7
sI1103
g7
sI1104
g7
sI1105
g7
sI1106
g7
sI1107
g7
sI1108
g7
sI1109
g7
sI1110
g7
sI1111
g7
sI1112
g7
sI1113
g7
sI1114
g7
sI1115
g7
sI1116
g7
sI1117
g7
sI1118
g7
sI1119
g7
sI1120
g7
sI1121
g7
sI1122
S'6CD4sp'
p8
sI1123
g8
sI1124
g8
sI1125
g8
sI1126
g8
sI1127
g8
sI1128
g8
sI1129
g8
sI1130
g8
sI1131
g8
sI1132
g8
sI1133
g8
sI1134
g8
sI1135
g8
sI1136
g8
sI1137
g8
sI1138
g8
sI1139
g8
sI1140
g8
sI1141
g8
sI1142
g8
sI1143
g8
sI1144
g8
sI1145
g8
sI1146
g8
sI1147
g8
sI1148
g8
sI1149
g8
sI1150
g8
sI1151
g8
sI1152
g8
sI1153
g8
sI1154
g8
sI1155
g8
sI1156
g8
sI1157
g8
sI1158
g8
sI1159
g8
sI1160
g8
sI1161
g8
sI1162
g8
sI1163
g8
sI1164
g8
sI1165
g8
sI1166
g8
sI1167
g8
sI1168
g8
sI1169
g8
sI1170
g8
sI1171
g8
sI1172
g8
sI1173
g8
sI1174
g8
sI1175
g8
sI1176
g8
sI1177
g8
sI1178
g8
sI1179
g8
sI1180
g8
sI1181
g8
sI1182
g8
sI1183
g8
sI1184
g8
sI1185
g8
sI1186
g8
sI1187
g8
sI1188
g8
sI1189
S'7CD8sp'
p9
sI1190
g9
sI1191
g9
sI1192
g9
sI1193
g9
sI1194
g9
sI1195
g9
sI1196
g9
sI1197
g9
sI1198
g9
sI1199
g9
sI1200
g9
sI1201
g9
sI1202
g9
sI1203
g9
sI1204
g9
sI1205
g9
sI1206
g9
sI1207
g9
sI1208
g9
sI1209
g9
sI1210
g9
sI1211
g9
sI1212
g9
sI1213
g9
sI1214
g9
sI1215
g9
sI1216
g9
sI1217
g9
sI1218
g9
sI1219
g9
sI1220
g9
sI1221
g9
sI1222
g9
sI1223
g9
sI1224
g9
sI1225
g9
sI1226
g9
sI1227
g9
sI1228
g9
sI1229
g9
sI1230
g9
sI1231
g9
sI1232
g9
sI1233
g9
sI1234
g9
sI1235
g9
sI1236
g9
sI1237
g9
sI1238
g9
sI1239
g9
sI1240
g9
sI1241
g9
sI1242
g9
sI1243
g9
sI1244
g9
sI1245
g9
sI1246
g9
sI1247
g9
sI1248
g9
sI1249
g9
sI1250
g9
sI1251
g9
sI1252
g9
sI1253
g9
sI1254
g9
sI1255
g9
sI1256
g9
sI1257
g9
sI1258
g9
sI1259
g9
sI1260
S'9NCL'
p10
sI1261
g10
sI1262
g10
sI1263
g10
sI1264
g10
sI1265
g10
sI1266
g10
sI1267
g10
sI1268
g10
sI1269
g10
sI1270
g10
sI1271
g10
sI1272
g10
sI1273
g10
sI1274
g10
sI1275
g10
sI1276
g10
sI1277
g10
sI1278
g10
sI1279
g10
sI1280
g10
sI1281
g10
sI1282
g10
sI1283
g10
sI1284
g10
sI1285
g10
sI1286
g10
sI1287
g10
sI1288
g10
sI1289
g10
sI1290
g10
sI1291
g10
sI1292
g10
sI1293
g10
sI1294
g10
sI1295
g10
sI1296
g10
sI1297
g10
sI1298
g10
sI1299
g10
sI1300
g10
sI1301
g10
sI1302
g10
sI1303
g10
sI1304
g10
sI1305
g10
sI1306
g10
sI1307
g10
sI1308
g10
sI1309
g10
sI1310
g10
sI1311
g10
sI1312
g10
sI1313
g10
sI1314
g10
sI1315
g10
sI1316
g10
sI1317
g10
sI1318
g10
sI1319
g10
sI1320
g10
sI1321
S'10APC'
p11
sI1322
g11
sI1323
g11
sI1324
g11
sI1325
g11
sI1326
g11
sI1327
g11
sI1328
g11
sI1329
g11
sI1330
g11
sI1331
g11
sI1332
g11
sI1333
g11
sI1334
g11
sI1335
g11
sI1336
g11
sI1337
g11
sI1338
g11
sI1339
g11
sI1340
g11
sI1341
g11
sI1342
g11
sI1343
g11
sI1344
g11
sI1345
g11
sI1346
g11
sI1347
g11
sI1348
g11
sI1349
g11
sI1350
g11
sI1351
g11
sI1352
g11
sI1353
g11
sI1354
g11
sI1355
g11
sI1356
g11
sI1357
g11
sI1358
g11
sI1359
g11
sI1360
g11
sI1361
g11
sI1362
g11
sI1363
g11
sI1364
g11
sI1365
g11
sI1366
g11
sI1367
g11
sI1368
g11
sI1369
g11
sI1370
g11
sI1371
g11
sI1372
g11
sI1373
g11
sI1374
g11
sI1375
g11
sI1376
g11
ssS'gene'
p12
(dp13
I0
S'Gm10020'
p14
sI1
S'Pitpnc1'
p15
sI2
S'mt-Nd2'
p16
sI3
S'Tm6sf1'
p17
sI4
S'Pag1'
p18
sI5
S'Patz1'
p19
sI6
S'mt-Co1'
p20
sI7
S'Cbfa2t3'
p21
sI8
S'B2m'
p22
sI9
S'Trdc'
p23
sI10
S'Ly6d'
p24
sI11
S'Tcf25'
p25
sI12
S'Zfp36l2'
p26
sI13
S'Dnajc7'
p27
sI14
S'Cd3g'
p28
sI15
S'Tacc1'
p29
sI16
S'Notch1'
p30
sI17
S'Mta3'
p31
sI18
S'Pebp1'
p32
sI19
S'Prss57'
p33
sI20
S'Fth1'
p34
sI21
S'Tcrg-C4'
p35
sI22
S'Tmem242'
p36
sI23
S'mt-Co3'
p37
sI24
S'Pcmtd1'
p38
sI25
S'mt-Cytb'
p39
sI26
S'Dtnbp1'
p40
sI27
S'1500009L16Rik'
p41
sI28
S'Zfas1'
p42
sI29
S'Arglu1'
p43
sI30
S'Hes1'
p44
sI31
S'Cnpy2'
p45
sI32
S'S100a11'
p46
sI33
S'Sox4'
p47
sI34
S'Ppm1h'
p48
sI35
S'Pnisr'
p49
sI36
S'Gas5'
p50
sI37
S'Aqp11'
p51
sI38
S'2410006H16Rik'
p52
sI39
S'Eef1g'
p53
sI40
S'Arpp21'
p54
sI41
S'Eef1b2'
p55
sI42
S'Cdv3'
p56
sI43
S'Sec61b'
p57
sI44
S'Desi1'
p58
sI45
S'Pim1'
p59
sI46
S'Pik3ip1'
p60
sI47
S'Fkbp5'
p61
sI48
S'Cmtm7'
p62
sI49
S'Rcsd1'
p63
sI50
S'Ssbp3'
p64
sI51
S'Luc7l2'
p65
sI52
S'Mtf2'
p66
sI53
S'Gstp1'
p67
sI54
S'mt-Nd5'
p68
sI55
S'Akap13'
p69
sI56
S'Naca'
p70
sI57
S'5830418P13Rik'
p71
sI58
S'Ptcra'
p72
sI59
S'Pgls'
p73
sI60
S'AC149090.1'
p74
sI61
S'Il2ra'
p75
sI62
S'Rgcc'
p76
sI63
S'Tbca'
p77
sI64
S'Crip1'
p78
sI65
S'Rabgap1l'
p79
sI66
S'Itga4'
p80
sI67
S'Ctla2a'
p81
sI68
S'Tmem121'
p82
sI69
S'Cdk6'
p83
sI70
S'Gm5111'
p84
sI71
S'Cd24a'
p85
sI72
S'Tcrg-C2'
p86
sI73
S'Cd47'
p87
sI74
S'Rack1'
p88
sI75
S'Naxd'
p89
sI76
S'Bst2'
p90
sI77
S'Plac8'
p91
sI78
S'Myl10'
p92
sI79
S'Sell'
p93
sI80
S'AL607105.1'
p94
sI81
S'Dntt'
p95
sI82
S'Phgdh'
p96
sI83
S'Tcrg-C1'
p97
sI84
S'Ppt1'
p98
sI85
S'Runx1'
p99
sI86
S'Smarca4'
p100
sI87
S'Fam169b'
p101
sI88
S'Ifitm2'
p102
sI89
S'Ogt'
p103
sI90
S'Myb'
p104
sI91
S'Snhg1'
p105
sI92
S'Hdac4'
p106
sI93
S'Uck2'
p107
sI94
S'Hibadh'
p108
sI95
S'Gpx1'
p109
sI96
S'mt-Co2'
p110
sI97
S'Pdrg1'
p111
sI98
S'Hspe1'
p112
sI99
S'H2afy'
p113
sI100
S'Lman2l'
p114
sI101
S'Marcks'
p115
sI102
S'Nhp2'
p116
sI103
S'Ndufc1'
p117
sI104
S'Mcm7'
p118
sI105
S'Hspd1'
p119
sI106
g23
sI107
S'Pa2g4'
p120
sI108
S'Srm'
p121
sI109
S'Psma4'
p122
sI110
S'Dpy30'
p123
sI111
S'Atpif1'
p124
sI112
S'Ctage5'
p125
sI113
S'Cacybp'
p126
sI114
S'Gm10076'
p127
sI115
S'Bola2'
p128
sI116
S'Chchd2'
p129
sI117
S'Dcun1d5'
p130
sI118
S'Eef1d'
p131
sI119
g78
sI120
S'Polr2f'
p132
sI121
S'Hprt'
p133
sI122
S'Psma7'
p134
sI123
S'Mrpl23'
p135
sI124
S'Rcc2'
p136
sI125
S'Dtymk'
p137
sI126
g112
sI127
S'Ncl'
p138
sI128
S'Romo1'
p139
sI129
S'Pcna'
p140
sI130
g53
sI131
g73
sI132
S'Snhg6'
p141
sI133
S'Nolc1'
p142
sI134
S'Tomm20'
p143
sI135
S'Usmg5'
p144
sI136
S'Tmem256'
p145
sI137
S'Gm8186'
p146
sI138
S'Cycs'
p147
sI139
S'Dut'
p148
sI140
S'Ddx21'
p149
sI141
S'C1qbp'
p150
sI142
S'Cnbp'
p151
sI143
S'Npm3'
p152
sI144
S'Cdk2ap1'
p153
sI145
S'Prdx1'
p154
sI146
S'Chchd3'
p155
sI147
S'Tpi1'
p156
sI148
S'Fbl'
p157
sI149
S'Eif2s2'
p158
sI150
S'Nme2'
p159
sI151
S'H2afz'
p160
sI152
S'Timm8a1'
p161
sI153
S'Ndufab1'
p162
sI154
S'Hdgf'
p163
sI155
S'Hells'
p164
sI156
g57
sI157
S'Cenpw'
p165
sI158
S'Lsm7'
p166
sI159
S'Ndufa12'
p167
sI160
S'Gnl3'
p168
sI161
g32
sI162
S'Gm10073'
p169
sI163
S'Srsf7'
p170
sI164
S'Ebna1bp2'
p171
sI165
S'Fabp5'
p172
sI166
S'Ptges3'
p173
sI167
S'Siva1'
p174
sI168
S'Snu13'
p175
sI169
S'Mrpl12'
p176
sI170
S'Ldha'
p177
sI171
S'Phb2'
p178
sI172
S'Uqcr11'
p179
sI173
S'Cenpx'
p180
sI174
g96
sI175
S'Tomm5'
p181
sI176
S'Snrpd2'
p182
sI177
S'Fkbp4'
p183
sI178
S'Snhg3'
p184
sI179
S'Cox7b'
p185
sI180
S'Cdca7'
p186
sI181
S'Uqcrq'
p187
sI182
S'Hnrnpab'
p188
sI183
S'Nudc'
p189
sI184
S'Hspa9'
p190
sI185
S'Fam162a'
p191
sI186
S'Nap1l1'
p192
sI187
S'Atp5g1'
p193
sI188
S'Pdap1'
p194
sI189
S'Cisd1'
p195
sI190
S'Metap2'
p196
sI191
S'Impdh2'
p197
sI192
S'Polr2l'
p198
sI193
S'Fmc1'
p199
sI194
S'Serbp1'
p200
sI195
S'Nop10'
p201
sI196
S'Pgam1'
p202
sI197
S'Lsm6'
p203
sI198
S'Ppia'
p204
sI199
S'Gapdh'
p205
sI200
S'Gar1'
p206
sI201
S'Uqcr10'
p207
sI202
S'Anp32b'
p208
sI203
S'Srsf2'
p209
sI204
S'Lyar'
p210
sI205
g56
sI206
S'Arpp19'
p211
sI207
S'Snrpb'
p212
sI208
S'Alyref'
p213
sI209
S'Cks1b'
p214
sI210
S'Snrpe'
p215
sI211
S'Cox5a'
p216
sI212
S'Tipin'
p217
sI213
S'Lsm4'
p218
sI214
S'Hint1'
p219
sI215
S'Eef1a1'
p220
sI216
S'Cdk4'
p221
sI217
S'Atp5g2'
p222
sI218
S'Snrpf'
p223
sI219
S'Park7'
p224
sI220
S'Uqcc2'
p225
sI221
S'Snrpd1'
p226
sI222
S'Comt'
p227
sI223
S'Banf1'
p228
sI224
g105
sI225
S'Tkt'
p229
sI226
S'Higd1a'
p230
sI227
S'Phf5a'
p231
sI228
S'Cox5b'
p232
sI229
S'Atp5g3'
p233
sI230
S'Pfdn1'
p234
sI231
S'Myc'
p235
sI232
S'G3bp1'
p236
sI233
S'Rbmxl1'
p237
sI234
S'Trim28'
p238
sI235
S'Snhg4'
p239
sI236
S'Dynll1'
p240
sI237
S'Npm1'
p241
sI238
S'Lsm2'
p242
sI239
S'Swi5'
p243
sI240
S'Tomm7'
p244
sI241
S'Mcm5'
p245
sI242
S'Mrpl57'
p246
sI243
S'Lsm5'
p247
sI244
S'Galk1'
p248
sI245
S'Hmgn1'
p249
sI246
S'Fkbp3'
p250
sI247
S'Mrpl18'
p251
sI248
S'Strap'
p252
sI249
S'Eif3i'
p253
sI250
S'Mrpl36'
p254
sI251
S'Mcm6'
p255
sI252
S'Tfdp1'
p256
sI253
S'Odc1'
p257
sI254
S'Psmb5'
p258
sI255
g85
sI256
g55
sI257
S'Cbx3'
p259
sI258
S'Ywhae'
p260
sI259
S'Minos1'
p261
sI260
S'Mcm3'
p262
sI261
S'Atp5e'
p263
sI262
S'Slc25a3'
p264
sI263
S'Phb'
p265
sI264
S'Ndufb2'
p266
sI265
S'Llph'
p267
sI266
S'Mif'
p268
sI267
S'Eif1ax'
p269
sI268
S'Snrpd3'
p270
sI269
S'Cct6a'
p271
sI270
S'Cox8a'
p272
sI271
S'Cox7a2'
p273
sI272
S'Tuba1b'
p274
sI273
S'Mrps33'
p275
sI274
S'Eef1e1'
p276
sI275
S'Sf3b5'
p277
sI276
S'Eif5a'
p278
sI277
S'Atp5j'
p279
sI278
S'Gspt1'
p280
sI279
S'Hmgb2'
p281
sI280
S'Nutf2'
p282
sI281
S'2010107E04Rik'
p283
sI282
S'Sdhb'
p284
sI283
S'Cyc1'
p285
sI284
S'Ndufb4'
p286
sI285
S'Cox7c'
p287
sI286
S'Eny2'
p288
sI287
S'Atp5j2'
p289
sI288
S'Ddx18'
p290
sI289
S'St13'
p291
sI290
S'Apex1'
p292
sI291
S'Gzma'
p293
sI292
g41
sI293
S'Cox6c'
p294
sI294
S'Selenoh'
p295
sI295
S'Eif4a1'
p296
sI296
S'Sap18'
p297
sI297
S'Pfdn6'
p298
sI298
S'Atp5b'
p299
sI299
S'Srsf6'
p300
sI300
S'Tomm40'
p301
sI301
S'Ndufb8'
p302
sI302
S'Ndufa4'
p303
sI303
S'Vdac1'
p304
sI304
S'Atp5k'
p305
sI305
S'Prmt1'
p306
sI306
S'Ranbp1'
p307
sI307
S'Set'
p308
sI308
S'Ndufs6'
p309
sI309
S'Cct3'
p310
sI310
S'Rnps1'
p311
sI311
S'Pcbp1'
p312
sI312
S'Mrps36'
p313
sI313
S'Rsl1d1'
p314
sI314
S'Nop56'
p315
sI315
S'Ppa1'
p316
sI316
S'Snrpg'
p317
sI317
S'Dbi'
p318
sI318
S'Dctpp1'
p319
sI319
S'Eif3a'
p320
sI320
S'Erh'
p321
sI321
S'Atp5o'
p322
sI322
S'Wdr89'
p323
sI323
S'Nme1'
p324
sI324
S'Nop58'
p325
sI325
S'Ybx1'
p326
sI326
S'Nasp'
p327
sI327
S'Ddx39b'
p328
sI328
S'Slirp'
p329
sI329
S'Eif3g'
p330
sI330
S'Dkc1'
p331
sI331
S'Syce2'
p332
sI332
S'Hsp90aa1'
p333
sI333
S'Tcp1'
p334
sI334
S'Ndufb6'
p335
sI335
S'Pclaf'
p336
sI336
S'Magoh'
p337
sI337
S'Ube2e1'
p338
sI338
S'Atp5l'
p339
sI339
S'Mrpl51'
p340
sI340
S'Gtf3a'
p341
sI341
g66
sI342
S'Ran'
p342
sI343
S'Pdcd5'
p343
sI344
S'Gadd45gip1'
p344
sI345
S'Txnl4a'
p345
sI346
S'Hsp90ab1'
p346
sI347
S'Mrpl20'
p347
sI348
S'Cox17'
p348
sI349
S'Lsm3'
p349
sI350
S'Uchl3'
p350
sI351
S'AI662270'
p351
sI352
S'Lsm8'
p352
sI353
S'Ptma'
p353
sI354
S'Uqcrb'
p354
sI355
S'Mrpl42'
p355
sI356
S'Chchd1'
p356
sI357
S'Srsf3'
p357
sI358
S'Rfc2'
p358
sI359
S'Stmn1'
p359
sI360
S'Tcf19'
p360
sI361
g255
sI362
g219
sI363
S'Atad2'
p361
sI364
g249
sI365
S'Fbxo5'
p362
sI366
g192
sI367
S'Smc3'
p363
sI368
S'Rfc4'
p364
sI369
S'Arl6ip6'
p365
sI370
S'Anapc5'
p366
sI371
S'Fen1'
p367
sI372
S'Atp5h'
p368
sI373
g209
sI374
S'Gmnn'
p369
sI375
g327
sI376
g332
sI377
g170
sI378
S'Tyms'
p370
sI379
g317
sI380
g251
sI381
g321
sI382
S'Ccne2'
p371
sI383
g226
sI384
S'Pnn'
p372
sI385
S'Mcm2'
p373
sI386
g223
sI387
S'Tk1'
p374
sI388
g326
sI389
S'Asf1b'
p375
sI390
g272
sI391
g211
sI392
g333
sI393
g242
sI394
g281
sI395
S'Clspn'
p376
sI396
g205
sI397
g342
sI398
S'Hmgn2'
p377
sI399
g221
sI400
S'E2f2'
p378
sI401
S'Orc6'
p379
sI402
S'Dnajc9'
p380
sI403
S'Fam111a'
p381
sI404
S'Hmgb1'
p382
sI405
g137
sI406
S'Ezh2'
p383
sI407
S'Rfc1'
p384
sI408
S'Dtl'
p385
sI409
S'Usp1'
p386
sI410
g204
sI411
S'1810037I17Rik'
p387
sI412
g154
sI413
S'Mrpl14'
p388
sI414
S'Rfc3'
p389
sI415
g208
sI416
g346
sI417
g188
sI418
S'Gins2'
p390
sI419
g231
sI420
g319
sI421
S'Hpf1'
p391
sI422
g220
sI423
S'Txn1'
p392
sI424
g357
sI425
S'Wdr76'
p393
sI426
g237
sI427
g175
sI428
g256
sI429
S'Ung'
p394
sI430
g273
sI431
g279
sI432
g318
sI433
g146
sI434
g124
sI435
g140
sI436
S'Ccdc34'
p395
sI437
g186
sI438
S'Rdx'
p396
sI439
S'Maz'
p397
sI440
g212
sI441
g118
sI442
g165
sI443
g73
sI444
g336
sI445
g148
sI446
g352
sI447
S'Rmi2'
p398
sI448
S'Dek'
p399
sI449
S'Uhrf1'
p400
sI450
g307
sI451
g164
sI452
S'Ube2e3'
p401
sI453
S'Hnrnpu'
p402
sI454
g262
sI455
g353
sI456
S'Slbp'
p403
sI457
S'Dhfr'
p404
sI458
g160
sI459
g252
sI460
S'Rrm2'
p405
sI461
g217
sI462
S'Lig1'
p406
sI463
g245
sI464
S'Csrp1'
p407
sI465
g174
sI466
S'Spc24'
p408
sI467
S'Lbr'
p409
sI468
S'Tmpo'
p410
sI469
g215
sI470
g342
sI471
S'Mki67'
p411
sI472
g209
sI473
S'Gm12355'
p412
sI474
g380
sI475
S'Cmc2'
p413
sI476
S'Cdk1'
p414
sI477
g175
sI478
S'Cks2'
p415
sI479
S'Rhno1'
p416
sI480
S'Marcksl1'
p417
sI481
g188
sI482
S'Hnrnpa2b1'
p418
sI483
g140
sI484
S'Dleu2'
p419
sI485
g369
sI486
S'H3f3b'
p420
sI487
g405
sI488
S'Ccna2'
p421
sI489
S'Top2a'
p422
sI490
g406
sI491
S'Kif15'
p423
sI492
S'Hnrnpd'
p424
sI493
g247
sI494
S'Cenpe'
p425
sI495
S'Clic1'
p426
sI496
g208
sI497
S'Ppp1cc'
p427
sI498
S'Rbm3'
p428
sI499
g118
sI500
S'Smc6'
p429
sI501
S'Nfyb'
p430
sI502
g192
sI503
g378
sI504
g281
sI505
S'Aurkb'
p431
sI506
S'Lmnb1'
p432
sI507
S'Tceal9'
p433
sI508
g353
sI509
S'Rrm1'
p434
sI510
S'Tubb4b'
p435
sI511
S'Hnrnpa3'
p436
sI512
g349
sI513
S'Racgap1'
p437
sI514
g259
sI515
S'Nusap1'
p438
sI516
g403
sI517
S'Incenp'
p439
sI518
g148
sI519
S'Hist1h2ae'
p440
sI520
g318
sI521
g382
sI522
S'Raly'
p441
sI523
S'Dnmt1'
p442
sI524
g366
sI525
g386
sI526
g359
sI527
S'Nsd2'
p443
sI528
S'Cdca3'
p444
sI529
g160
sI530
g321
sI531
S'Nucks1'
p445
sI532
S'Bub3'
p446
sI533
S'Psip1'
p447
sI534
S'Lockd'
p448
sI535
g295
sI536
S'Ube2s'
p449
sI537
g274
sI538
S'Birc5'
p450
sI539
S'Spc25'
p451
sI540
g376
sI541
g399
sI542
S'Fkbp2'
p452
sI543
g391
sI544
g361
sI545
S'Prc1'
p453
sI546
S'Hist1h1e'
p454
sI547
g397
sI548
S'Ncapd3'
p455
sI549
g383
sI550
S'Kif22'
p456
sI551
S'Ncapd2'
p457
sI552
S'Rbbp7'
p458
sI553
S'H2afx'
p459
sI554
g251
sI555
S'Ube2c'
p460
sI556
g374
sI557
S'Ctcf'
p461
sI558
S'Ube2t'
p462
sI559
S'E2f8'
p463
sI560
g219
sI561
g362
sI562
S'Neil3'
p464
sI563
S'Hmgb3'
p465
sI564
g360
sI565
g395
sI566
g370
sI567
S'Smc4'
p466
sI568
S'Hist1h1b'
p467
sI569
S'Jpt1'
p468
sI570
S'Mns1'
p469
sI571
S'Hist1h4d'
p470
sI572
S'Rbbp4'
p471
sI573
g217
sI574
S'Tubb5'
p472
sI575
g226
sI576
S'Nxt1'
p473
sI577
S'Cdkn2d'
p474
sI578
g133
sI579
S'Cdca8'
p475
sI580
S'H2afv'
p476
sI581
S'Pbk'
p477
sI582
g375
sI583
S'Ubald2'
p478
sI584
g377
sI585
g357
sI586
S'Sumo2'
p479
sI587
g228
sI588
S'Ywhah'
p480
sI589
S'Nsmce4a'
p481
sI590
g384
sI591
g174
sI592
g307
sI593
S'Gtf2a2'
p482
sI594
g205
sI595
g213
sI596
g400
sI597
g212
sI598
g256
sI599
g242
sI600
g379
sI601
S'Mad2l1'
p483
sI602
S'Anp32e'
p484
sI603
S'Hist1h2ap'
p485
sI604
S'Hist1h2af'
p486
sI605
g333
sI606
S'Smc1a'
p487
sI607
S'Mxd3'
p488
sI608
g165
sI609
S'Calm2'
p489
sI610
g163
sI611
S'Esco2'
p490
sI612
S'Cdkn2c'
p491
sI613
g363
sI614
g203
sI615
g211
sI616
g214
sI617
S'Smc2'
p492
sI618
g272
sI619
S'Nudt21'
p493
sI620
S'Ncapg2'
p494
sI621
g137
sI622
g336
sI623
S'Ssna1'
p495
sI624
g395
sI625
g469
sI626
g478
sI627
S'Arl6ip1'
p496
sI628
g160
sI629
g423
sI630
S'Ccnd3'
p497
sI631
S'Rtn3'
p498
sI632
g446
sI633
g419
sI634
S'Bub1b'
p499
sI635
S'Ska2'
p500
sI636
S'Kif23'
p501
sI637
g471
sI638
g359
sI639
S'Ap3s1'
p502
sI640
g441
sI641
g247
sI642
g445
sI643
g405
sI644
S'Tubb2a'
p503
sI645
g485
sI646
g397
sI647
S'H3f3a'
p504
sI648
g448
sI649
S'Cenpl'
p505
sI650
g489
sI651
g336
sI652
g455
sI653
g484
sI654
g281
sI655
g467
sI656
g493
sI657
g386
sI658
S'Ccng2'
p506
sI659
g488
sI660
g437
sI661
S'Dbf4'
p507
sI662
S'Ccnb1'
p508
sI663
S'Sgo2a'
p509
sI664
g214
sI665
S'Gm10282'
p510
sI666
g479
sI667
g433
sI668
S'Rhoa'
p511
sI669
g475
sI670
g492
sI671
g342
sI672
g477
sI673
S'Hmmr'
p512
sI674
g486
sI675
S'Ddx39'
p513
sI676
g474
sI677
g464
sI678
S'Tuba1c'
p514
sI679
S'Cdkn3'
p515
sI680
g483
sI681
g418
sI682
S'Cenpa'
p516
sI683
g213
sI684
S'Tacc3'
p517
sI685
g349
sI686
S'Kif11'
p518
sI687
g427
sI688
g452
sI689
S'Hist1h2ac'
p519
sI690
g410
sI691
g426
sI692
g453
sI693
S'Odf2'
p520
sI694
S'Shcbp1'
p521
sI695
g490
sI696
g435
sI697
S'Hjurp'
p522
sI698
g487
sI699
g353
sI700
g414
sI701
S'Pbrm1'
p523
sI702
g436
sI703
S'Ptms'
p524
sI704
g413
sI705
g470
sI706
g428
sI707
g449
sI708
S'Brd8'
p525
sI709
g466
sI710
g409
sI711
S'Cd8a'
p526
sI712
g438
sI713
g451
sI714
g425
sI715
S'Emp3'
p527
sI716
g468
sI717
g491
sI718
g456
sI719
S'Cenpf'
p528
sI720
S'Trim59'
p529
sI721
g366
sI722
g422
sI723
S'Cbx1'
p530
sI724
g382
sI725
S'Cit'
p531
sI726
S'Calm3'
p532
sI727
S'Ncapg'
p533
sI728
S'Aurka'
p534
sI729
S'Ccnb2'
p535
sI730
g208
sI731
S'Gm8797'
p536
sI732
g362
sI733
g375
sI734
S'Ccnf'
p537
sI735
g399
sI736
g444
sI737
S'Rad21'
p538
sI738
g261
sI739
g461
sI740
g450
sI741
g421
sI742
g472
sI743
g226
sI744
S'Ncaph2'
p539
sI745
S'Myef2'
p540
sI746
g415
sI747
S'Pimreg'
p541
sI748
S'Elob'
p542
sI749
S'Mis18bp1'
p543
sI750
g431
sI751
g274
sI752
g377
sI753
g411
sI754
S'Cdc20'
p544
sI755
g476
sI756
S'Hist3h2ba'
p545
sI757
g432
sI758
S'Ckap2'
p546
sI759
g259
sI760
g465
sI761
g163
sI762
g473
sI763
S'Sgo1'
p547
sI764
g434
sI765
S'Cenpm'
p548
sI766
g228
sI767
g460
sI768
S'Rad51ap1'
p549
sI769
S'Knl1'
p550
sI770
S'Plk1'
p551
sI771
g242
sI772
S'Tpx2'
p552
sI773
g457
sI774
S'Kpna2'
p553
sI775
g459
sI776
S'Ckap2l'
p554
sI777
S'Ubb'
p555
sI778
S'Serinc3'
p556
sI779
g295
sI780
g383
sI781
g439
sI782
g440
sI783
g408
sI784
S'Dlgap5'
p557
sI785
S'Lgals9'
p558
sI786
g547
sI787
S'Ndufs5'
p559
sI788
S'Il21r'
p560
sI789
g452
sI790
g506
sI791
g446
sI792
g524
sI793
g535
sI794
S'Reep4'
p561
sI795
g555
sI796
g95
sI797
g543
sI798
g115
sI799
g496
sI800
g459
sI801
g450
sI802
g160
sI803
S'Tnfaip8'
p562
sI804
g502
sI805
g456
sI806
g483
sI807
g460
sI808
g532
sI809
S'Fzr1'
p563
sI810
g408
sI811
g544
sI812
g435
sI813
g514
sI814
g281
sI815
S'2610318N02Rik'
p564
sI816
g457
sI817
g528
sI818
g228
sI819
g449
sI820
g415
sI821
g529
sI822
S'Dgkeos'
p565
sI823
g508
sI824
S'Ifngr1'
p566
sI825
g214
sI826
g522
sI827
g448
sI828
g516
sI829
S'A930003A15Rik'
p567
sI830
g461
sI831
g553
sI832
g247
sI833
S'Ezr'
p568
sI834
g468
sI835
g554
sI836
g451
sI837
S'Nek2'
p569
sI838
S'Tax1bp1'
p570
sI839
g426
sI840
g410
sI841
S'Hmgn5'
p571
sI842
g500
sI843
g518
sI844
g421
sI845
g492
sI846
g534
sI847
g536
sI848
g432
sI849
g437
sI850
g526
sI851
S'Rag2'
p572
sI852
S'Sh2d1a'
p573
sI853
S'Ckap5'
p574
sI854
g512
sI855
g491
sI856
g476
sI857
g489
sI858
S'Cux1'
p575
sI859
S'Lgals1'
p576
sI860
S'Endou'
p577
sI861
g478
sI862
g295
sI863
g552
sI864
S'Hsp90b1'
p578
sI865
g425
sI866
g422
sI867
g545
sI868
S'Tspo'
p579
sI869
S'Rmnd5a'
p580
sI870
g465
sI871
g163
sI872
g546
sI873
S'Knstrn'
p581
sI874
g440
sI875
S'Hp1bp3'
p582
sI876
g240
sI877
g466
sI878
g444
sI879
g517
sI880
S'Nde1'
p583
sI881
g503
sI882
g556
sI883
g453
sI884
g527
sI885
g475
sI886
S'Nudcd2'
p584
sI887
g414
sI888
g538
sI889
g439
sI890
g550
sI891
S'Tuba1a'
p585
sI892
g411
sI893
S'Ect2'
p586
sI894
g472
sI895
S'Cdc25b'
p587
sI896
g469
sI897
g541
sI898
g274
sI899
g382
sI900
g484
sI901
g377
sI902
g438
sI903
g515
sI904
S'Kmt5a'
p588
sI905
g445
sI906
S'Dynlt1c'
p589
sI907
g359
sI908
g474
sI909
S'Anxa2'
p590
sI910
g535
sI911
g568
sI912
g524
sI913
S'Trbc2'
p591
sI914
g526
sI915
g240
sI916
g392
sI917
g484
sI918
S'Ctsl'
p592
sI919
S'Cd8b1'
p593
sI920
g576
sI921
S'Sfpq'
p594
sI922
S'Ly6e'
p595
sI923
g382
sI924
g544
sI925
g377
sI926
g516
sI927
g247
sI928
g590
sI929
g281
sI930
g448
sI931
g95
sI932
g579
sI933
g581
sI934
g469
sI935
g23
sI936
S'Gm525'
p596
sI937
g24
sI938
g52
sI939
S'Dnajc15'
p597
sI940
g565
sI941
S'Ppp1r14b'
p598
sI942
S'Xrcc6'
p599
sI943
g54
sI944
S'Gtf2h4'
p600
sI945
g51
sI946
S'Btg2'
p601
sI947
S'Trp53inp1'
p602
sI948
S'Gm44175'
p603
sI949
S'Ntrk3'
p604
sI950
g95
sI951
g20
sI952
S'Ighm'
p605
sI953
S'Gm4258'
p606
sI954
g591
sI955
g497
sI956
S'Rsrp1'
p607
sI957
S'Ldhb'
p608
sI958
S'Celf2'
p609
sI959
g577
sI960
S'Mier1'
p610
sI961
S'Lck'
p611
sI962
S'Rcbtb2'
p612
sI963
S'Gm5914'
p613
sI964
S'Tubb2b'
p614
sI965
S'Pycard'
p615
sI966
g24
sI967
g526
sI968
S'Gmfg'
p616
sI969
g580
sI970
g593
sI971
S'Epsti1'
p617
sI972
S'Cd4'
p618
sI973
S'Usp3'
p619
sI974
g566
sI975
S'Rag1'
p620
sI976
g576
sI977
S'Mxd4'
p621
sI978
g616
sI979
S'Slc7a11'
p622
sI980
S'Tcf12'
p623
sI981
g599
sI982
S'Satb1'
p624
sI983
g618
sI984
S'Cbl'
p625
sI985
g601
sI986
g620
sI987
S'Tcf7'
p626
sI988
g609
sI989
S'Chrna9'
p627
sI990
g24
sI991
g602
sI992
S'Rbm39'
p628
sI993
g621
sI994
S'Klf3'
p629
sI995
g577
sI996
g608
sI997
S'Ets2'
p630
sI998
g565
sI999
g63
sI1000
S'Ccr9'
p631
sI1001
g51
sI1002
S'Tctex1d1'
p632
sI1003
g526
sI1004
S'Camk4'
p633
sI1005
S'Ssbp2'
p634
sI1006
S'Clk3'
p635
sI1007
g611
sI1008
S'Cd27'
p636
sI1009
g95
sI1010
g103
sI1011
g610
sI1012
S'Snrnp70'
p637
sI1013
S'A430035B10Rik'
p638
sI1014
g497
sI1015
g591
sI1016
S'Nabp1'
p639
sI1017
S'Nrip1'
p640
sI1018
S'Arl5c'
p641
sI1019
S'Agfg2'
p642
sI1020
g600
sI1021
S'Znrf1'
p643
sI1022
g613
sI1023
g593
sI1024
S'Nsg2'
p644
sI1025
S'Lpar6'
p645
sI1026
S'Fam78a'
p646
sI1027
g54
sI1028
S'Btg1'
p647
sI1029
S'Spint2'
p648
sI1030
g580
sI1031
g604
sI1032
S'Bcl11b'
p649
sI1033
g603
sI1034
g614
sI1035
g606
sI1036
g47
sI1037
S'Trbc1'
p650
sI1038
S'Cyb5a'
p651
sI1039
S'Rhoh'
p652
sI1040
S'Cd247'
p653
sI1041
S'Themis'
p654
sI1042
S'Thy1'
p655
sI1043
S'Klf13'
p656
sI1044
g607
sI1045
g636
sI1046
S'Laptm5'
p657
sI1047
S'Cnn3'
p658
sI1048
S'Dusp2'
p659
sI1049
S'Lef1'
p660
sI1050
S'Arhgdib'
p661
sI1051
g640
sI1052
S'Rap1a'
p662
sI1053
S'Actg1'
p663
sI1054
S'Rgs10'
p664
sI1055
S'Gata3'
p665
sI1056
g291
sI1057
g609
sI1058
S'Cd2'
p666
sI1059
S'Itm2a'
p667
sI1060
S'Etnk1'
p668
sI1061
S'Cytip'
p669
sI1062
S'Tox'
p670
sI1063
S'Cd6'
p671
sI1064
S'Cd5'
p672
sI1065
S'Ikzf1'
p673
sI1066
S'Trac'
p674
sI1067
S'Stk17b'
p675
sI1068
S'Rasgrp1'
p676
sI1069
S'Cd84'
p677
sI1070
S'Tespa1'
p678
sI1071
S'Id3'
p679
sI1072
S'Rinl'
p680
sI1073
S'Cd28'
p681
sI1074
g606
sI1075
S'Pfn1'
p682
sI1076
S'Ptprcap'
p683
sI1077
S'Sept7'
p684
sI1078
g631
sI1079
S'Arpc2'
p685
sI1080
S'Ikzf2'
p686
sI1081
g47
sI1082
g624
sI1083
S'Tmsb10'
p687
sI1084
S'Gimap6'
p688
sI1085
g631
sI1086
S'Il2rg'
p689
sI1087
S'Gimap4'
p690
sI1088
S'Arf5'
p691
sI1089
S'Cd53'
p692
sI1090
S'Cd52'
p693
sI1091
S'Ppp1r18'
p694
sI1092
S'Ets1'
p695
sI1093
S'Chd3'
p696
sI1094
S'Limd2'
p697
sI1095
S'Id2'
p698
sI1096
g667
sI1097
S'Bzw2'
p699
sI1098
S'Npc2'
p700
sI1099
g663
sI1100
g624
sI1101
S'Bcl2'
p701
sI1102
S'Eno1'
p702
sI1103
g669
sI1104
S'Tspan32'
p703
sI1105
g674
sI1106
g675
sI1107
S'Shisa5'
p704
sI1108
g169
sI1109
g685
sI1110
S'Fkbp1a'
p705
sI1111
g681
sI1112
g660
sI1113
g687
sI1114
S'Ptprc'
p706
sI1115
g666
sI1116
S'Vasp'
p707
sI1117
g682
sI1118
S'Cnn2'
p708
sI1119
g670
sI1120
S'Grcc10'
p709
sI1121
S'Msn'
p710
sI1122
S'Peli1'
p711
sI1123
g707
sI1124
g660
sI1125
S'Ppdpf'
p712
sI1126
g53
sI1127
S'Foxn3'
p713
sI1128
S'Ypel3'
p714
sI1129
S'Psme1'
p715
sI1130
g706
sI1131
g675
sI1132
S'Atp1b3'
p716
sI1133
g22
sI1134
S'H2-T22'
p717
sI1135
S'H2-T23'
p718
sI1136
S'4930523C07Rik'
p719
sI1137
g701
sI1138
S'Zfp36l1'
p720
sI1139
S'Cdk2ap2'
p721
sI1140
S'Arl4c'
p722
sI1141
S'Fxyd5'
p723
sI1142
S'Cotl1'
p724
sI1143
S'B4galnt1'
p725
sI1144
g647
sI1145
S'Ms4a6b'
p726
sI1146
g690
sI1147
S'Tmsb4x'
p727
sI1148
S'Vim'
p728
sI1149
S'H2-Q4'
p729
sI1150
g710
sI1151
g703
sI1152
S'Slfn2'
p730
sI1153
S'Ltb'
p731
sI1154
S'Psme2'
p732
sI1155
g692
sI1156
g666
sI1157
S'Sp100'
p733
sI1158
g697
sI1159
S'Tesc'
p734
sI1160
S'Arhgef1'
p735
sI1161
S'A930005H10Rik'
p736
sI1162
S'Ccr7'
p737
sI1163
g674
sI1164
g702
sI1165
g696
sI1166
S'Rasgrp2'
p738
sI1167
g169
sI1168
S'Klf2'
p739
sI1169
g527
sI1170
g704
sI1171
g669
sI1172
g708
sI1173
g688
sI1174
S'Foxp1'
p740
sI1175
g693
sI1176
S'Ms4a4b'
p741
sI1177
S'H2-K1'
p742
sI1178
S'Selenow'
p743
sI1179
S'Ccnd2'
p744
sI1180
S'H2-D1'
p745
sI1181
S'Gm12840'
p746
sI1182
S'Ifi27l2a'
p747
sI1183
g700
sI1184
S'Ptpn18'
p748
sI1185
S'Evl'
p749
sI1186
g664
sI1187
g687
sI1188
g709
sI1189
g701
sI1190
S'Bin2'
p750
sI1191
S'H2-Q7'
p751
sI1192
g743
sI1193
g725
sI1194
S'Anxa6'
p752
sI1195
g735
sI1196
g702
sI1197
S'Nkg7'
p753
sI1198
S'Cd7'
p754
sI1199
g732
sI1200
g744
sI1201
g731
sI1202
g693
sI1203
S'Runx3'
p755
sI1204
g728
sI1205
g704
sI1206
g724
sI1207
g741
sI1208
g742
sI1209
S'Sp110'
p756
sI1210
g739
sI1211
g708
sI1212
g687
sI1213
S'Jak1'
p757
sI1214
S'Ctsw'
p758
sI1215
g745
sI1216
g28
sI1217
g22
sI1218
g726
sI1219
S'Hcst'
p759
sI1220
g128
sI1221
g747
sI1222
S'Ostf1'
p760
sI1223
S'Rac2'
p761
sI1224
g527
sI1225
g723
sI1226
S'Fam189b'
p762
sI1227
g733
sI1228
g323
sI1229
g727
sI1230
g53
sI1231
S'Klk8'
p763
sI1232
S'Gm9843'
p764
sI1233
g748
sI1234
S'S100a10'
p765
sI1235
g715
sI1236
g737
sI1237
g749
sI1238
S'Tagln2'
p766
sI1239
g736
sI1240
S'Itgb7'
p767
sI1241
S'Lsp1'
p768
sI1242
g169
sI1243
S'Gm2000'
p769
sI1244
g716
sI1245
g659
sI1246
S'AW112010'
p770
sI1247
g700
sI1248
g127
sI1249
g711
sI1250
g697
sI1251
S'Gimap5'
p771
sI1252
g722
sI1253
g93
sI1254
g94
sI1255
g55
sI1256
g675
sI1257
S'Gm11808'
p772
sI1258
S'Saraf'
p773
sI1259
S'Arpc1b'
p774
sI1260
S'Klrk1'
p775
sI1261
S'Gimap3'
p776
sI1262
g725
sI1263
S'Il2rb'
p777
sI1264
g742
sI1265
S'Sh3bgrl3'
p778
sI1266
g698
sI1267
S'S100a6'
p779
sI1268
g749
sI1269
S'Ly6c2'
p780
sI1270
g770
sI1271
g753
sI1272
S'Klra9'
p781
sI1273
g751
sI1274
g754
sI1275
g745
sI1276
S'Cxcr6'
p782
sI1277
g81
sI1278
g765
sI1279
S'Klrb1c'
p783
sI1280
S'Klrc2'
p784
sI1281
S'Klrd1'
p785
sI1282
g758
sI1283
S'Il7r'
p786
sI1284
g46
sI1285
g759
sI1286
g690
sI1287
S'Ctsd'
p787
sI1288
S'Fgl2'
p788
sI1289
S'Ahnak'
p789
sI1290
g675
sI1291
g701
sI1292
S'Uba52'
p790
sI1293
g744
sI1294
g727
sI1295
S'Inpp4b'
p791
sI1296
g748
sI1297
g693
sI1298
S'Atp2b1'
p792
sI1299
g26
sI1300
S'Pglyrp1'
p793
sI1301
S'Efhd2'
p794
sI1302
g771
sI1303
g752
sI1304
S'Myl6'
p795
sI1305
S'Cd48'
p796
sI1306
S'Mbnl1'
p797
sI1307
g741
sI1308
g724
sI1309
g763
sI1310
S'Gm26740'
p798
sI1311
g704
sI1312
g772
sI1313
S'Capg'
p799
sI1314
S'Xcl1'
p800
sI1315
S'Selplg'
p801
sI1316
g659
sI1317
g22
sI1318
g755
sI1319
S'Lcp1'
p802
sI1320
S'Adcy7'
p803
sI1321
g764
sI1322
S'Igkc'
p804
sI1323
S'Irf8'
p805
sI1324
S'H2-Eb1'
p806
sI1325
S'Psap'
p807
sI1326
S'H2-Aa'
p808
sI1327
g46
sI1328
S'Samhd1'
p809
sI1329
S'Prr13'
p810
sI1330
S'H2-DMa'
p811
sI1331
S'Ctss'
p812
sI1332
g91
sI1333
S'H2-Ab1'
p813
sI1334
S'Ifi30'
p814
sI1335
g718
sI1336
g766
sI1337
S'Ftl1'
p815
sI1338
S'Pfdn5'
p816
sI1339
S'Tyrobp'
p817
sI1340
S'Ly6a'
p818
sI1341
S'Cst3'
p819
sI1342
S'Serp1'
p820
sI1343
S'H2-DMb1'
p821
sI1344
S'Ctsz'
p822
sI1345
g727
sI1346
g693
sI1347
S'Napsa'
p823
sI1348
g751
sI1349
S'Smim14'
p824
sI1350
S'Pold4'
p825
sI1351
g732
sI1352
S'Trim30a'
p826
sI1353
S'Sat1'
p827
sI1354
g778
sI1355
S'Grn'
p828
sI1356
S'Spi1'
p829
sI1357
g802
sI1358
S'Srgn'
p830
sI1359
S'H2-DMb2'
p831
sI1360
g747
sI1361
g728
sI1362
S'Bcl2a1d'
p832
sI1363
g22
sI1364
S'Psmb9'
p833
sI1365
g745
sI1366
g742
sI1367
S'H2-Oa'
p834
sI1368
g768
sI1369
S'Cyba'
p835
sI1370
g698
sI1371
S'Syngr2'
p836
sI1372
S'Ctsh'
p837
sI1373
S'Ly86'
p838
sI1374
g770
sI1375
S'Capns1'
p839
sI1376
S'Cd74'
p840
ss.